; Function Attrs: mustprogress uwtable
define hidden void @_ZN11opencv_test30Layer_GroupNorm_GroupNorm_Test5SetUpEv(ptr noundef nonnull align 8 dereferenceable(277) initializes((276, 277)) %0) unnamed_addr #4 align 2 personality ptr @__gxx_personality_v0 {
  %2 = getelementptr inbounds nuw i8, ptr %0, i64 276
  store i8 0, ptr %2, align 4, !tbaa !308
  invoke void @_ZN4perf8TestBase5SetUpEv(ptr noundef nonnull align 8 dereferenceable(248) %0)
          to label %16 unwind label %3

3:                                                ; preds = %1
  %4 = landingpad { ptr, i32 }
          catch ptr @_ZTIN6cvtest7details21SkipTestExceptionBaseE
  %5 = extractvalue { ptr, i32 } %4, 1
  %6 = tail call i32 @llvm.eh.typeid.for.p0(ptr nonnull @_ZTIN6cvtest7details21SkipTestExceptionBaseE) #30
  %7 = icmp eq i32 %5, %6
  br i1 %7, label %8, label %17

8:                                                ; preds = %3
  %9 = extractvalue { ptr, i32 } %4, 0
  %10 = tail call ptr @__cxa_begin_catch(ptr %9) #30
  store i8 1, ptr %2, align 4, !tbaa !308
  %11 = load ptr, ptr %10, align 8, !tbaa !24
  %12 = getelementptr inbounds nuw i8, ptr %11, i64 16
  %13 = load ptr, ptr %12, align 8
  %14 = tail call noundef ptr %13(ptr noundef nonnull align 8 dereferenceable(148) %10) #30
  %15 = tail call i32 (ptr, ...) @printf(ptr noundef nonnull dereferenceable(1) @.str.30, ptr noundef %14)
  tail call void @__cxa_end_catch()
  br label %16

16:                                               ; preds = %1, %8
  ret void

17:                                               ; preds = %3
  resume { ptr, i32 } %4
}